target datalayout = "e-m:e-p270:32:32-p271:32:32-p272:64:64-i64:64-i128:128-f80:128-n8:16:32:64-S128"
target triple = "x86_64-pc-linux-gnu"

%class.ezMiniSAT = type { %class.ezSAT.base, ptr, %"class.std::vector.14", i8, %"class.std::set" }
%class.ezSAT.base = type <{ ptr, i8, i8, i8, [5 x i8], %"class.std::map", %"class.std::vector", %"class.std::map.3", %"class.std::vector.9", i8, [3 x i8], i32, i32, [4 x i8], %"class.std::vector.14", %"class.std::vector.14", %"class.std::vector.19", %"class.std::vector.19", i32, i8, [3 x i8], i32 }>
%"class.std::map" = type { %"class.std::_Rb_tree" }
%"class.std::_Rb_tree" = type { %"struct.std::_Rb_tree<std::__cxx11::basic_string<char>, std::pair<const std::__cxx11::basic_string<char>, int>, std::_Select1st<std::pair<const std::__cxx11::basic_string<char>, int>>, std::less<std::__cxx11::basic_string<char>>>::_Rb_tree_impl" }
%"struct.std::_Rb_tree<std::__cxx11::basic_string<char>, std::pair<const std::__cxx11::basic_string<char>, int>, std::_Select1st<std::pair<const std::__cxx11::basic_string<char>, int>>, std::less<std::__cxx11::basic_string<char>>>::_Rb_tree_impl" = type { [8 x i8], %"struct.std::_Rb_tree_header" }
%"struct.std::_Rb_tree_header" = type { %"struct.std::_Rb_tree_node_base", i64 }
%"struct.std::_Rb_tree_node_base" = type { i32, ptr, ptr, ptr }
%"class.std::vector" = type { %"struct.std::_Vector_base" }
%"struct.std::_Vector_base" = type { %"struct.std::_Vector_base<std::__cxx11::basic_string<char>, std::allocator<std::__cxx11::basic_string<char>>>::_Vector_impl" }
%"struct.std::_Vector_base<std::__cxx11::basic_string<char>, std::allocator<std::__cxx11::basic_string<char>>>::_Vector_impl" = type { %"struct.std::_Vector_base<std::__cxx11::basic_string<char>, std::allocator<std::__cxx11::basic_string<char>>>::_Vector_impl_data" }
%"struct.std::_Vector_base<std::__cxx11::basic_string<char>, std::allocator<std::__cxx11::basic_string<char>>>::_Vector_impl_data" = type { ptr, ptr, ptr }
%"class.std::map.3" = type { %"class.std::_Rb_tree.4" }
%"class.std::_Rb_tree.4" = type { %"struct.std::_Rb_tree<std::pair<ezSAT::OpId, std::vector<int>>, std::pair<const std::pair<ezSAT::OpId, std::vector<int>>, int>, std::_Select1st<std::pair<const std::pair<ezSAT::OpId, std::vector<int>>, int>>, std::less<std::pair<ezSAT::OpId, std::vector<int>>>>::_Rb_tree_impl" }
%"struct.std::_Rb_tree<std::pair<ezSAT::OpId, std::vector<int>>, std::pair<const std::pair<ezSAT::OpId, std::vector<int>>, int>, std::_Select1st<std::pair<const std::pair<ezSAT::OpId, std::vector<int>>, int>>, std::less<std::pair<ezSAT::OpId, std::vector<int>>>>::_Rb_tree_impl" = type { [8 x i8], %"struct.std::_Rb_tree_header" }
%"class.std::vector.9" = type { %"struct.std::_Vector_base.10" }
%"struct.std::_Vector_base.10" = type { %"struct.std::_Vector_base<std::pair<ezSAT::OpId, std::vector<int>>, std::allocator<std::pair<ezSAT::OpId, std::vector<int>>>>::_Vector_impl" }
%"struct.std::_Vector_base<std::pair<ezSAT::OpId, std::vector<int>>, std::allocator<std::pair<ezSAT::OpId, std::vector<int>>>>::_Vector_impl" = type { %"struct.std::_Vector_base<std::pair<ezSAT::OpId, std::vector<int>>, std::allocator<std::pair<ezSAT::OpId, std::vector<int>>>>::_Vector_impl_data" }
%"struct.std::_Vector_base<std::pair<ezSAT::OpId, std::vector<int>>, std::allocator<std::pair<ezSAT::OpId, std::vector<int>>>>::_Vector_impl_data" = type { ptr, ptr, ptr }
%"class.std::vector.19" = type { %"struct.std::_Vector_base.20" }
%"struct.std::_Vector_base.20" = type { %"struct.std::_Vector_base<std::vector<int>, std::allocator<std::vector<int>>>::_Vector_impl" }
%"struct.std::_Vector_base<std::vector<int>, std::allocator<std::vector<int>>>::_Vector_impl" = type { %"struct.std::_Vector_base<std::vector<int>, std::allocator<std::vector<int>>>::_Vector_impl_data" }
%"struct.std::_Vector_base<std::vector<int>, std::allocator<std::vector<int>>>::_Vector_impl_data" = type { ptr, ptr, ptr }
%"class.std::vector.14" = type { %"struct.std::_Vector_base.15" }
%"struct.std::_Vector_base.15" = type { %"struct.std::_Vector_base<int, std::allocator<int>>::_Vector_impl" }
%"struct.std::_Vector_base<int, std::allocator<int>>::_Vector_impl" = type { %"struct.std::_Vector_base<int, std::allocator<int>>::_Vector_impl_data" }
%"struct.std::_Vector_base<int, std::allocator<int>>::_Vector_impl_data" = type { ptr, ptr, ptr }
%"class.std::set" = type { %"class.std::_Rb_tree.24" }
%"class.std::_Rb_tree.24" = type { %"struct.std::_Rb_tree<int, int, std::_Identity<int>, std::less<int>>::_Rb_tree_impl" }
%"struct.std::_Rb_tree<int, int, std::_Identity<int>, std::less<int>>::_Rb_tree_impl" = type { [8 x i8], %"struct.std::_Rb_tree_header" }
%"class.Minisat::SimpSolver" = type <{ %"class.Minisat::Solver.base", [3 x i8], i32, i32, i32, double, i8, i8, i8, i8, i32, i32, i32, i32, i8, [3 x i8], i32, [4 x i8], %"class.Minisat::vec.31", %"class.Minisat::VMap.40", %"class.Minisat::OccLists.55", %"class.Minisat::LMap", %"class.Minisat::Heap.61", %"class.Minisat::Queue", %"class.Minisat::VMap.40", %"class.Minisat::vec.32", %"class.Minisat::VMap.40", i32, i32, i32, [4 x i8] }>
%"class.Minisat::Solver.base" = type <{ ptr, %"class.Minisat::vec", %"class.Minisat::LSet", i32, [4 x i8], double, double, double, double, i8, [3 x i8], i32, i32, i8, i8, [2 x i8], double, i32, i32, double, double, double, i32, [4 x i8], double, i64, i64, i64, i64, i64, i64, i64, i64, i64, i64, i64, i64, i64, %"class.Minisat::vec.31", %"class.Minisat::vec.31", %"class.Minisat::vec.30", %"class.Minisat::vec.32", %"class.Minisat::vec.30", %"class.Minisat::VMap", %"class.Minisat::VMap.36", %"class.Minisat::VMap.40", %"class.Minisat::VMap.36", %"class.Minisat::VMap.40", %"class.Minisat::VMap.44", %"class.Minisat::OccLists", %"class.Minisat::Heap", i8, [7 x i8], double, double, i32, i32, i64, double, i8, [3 x i8], i32, %"class.Minisat::ClauseAllocator", %"class.Minisat::vec.32", %"class.Minisat::vec.32", %"class.Minisat::VMap.40", %"class.Minisat::vec.54", %"class.Minisat::vec.30", %"class.Minisat::vec.30", double, double, i32, [4 x i8], i64, i64, i8 }>
%"class.Minisat::vec" = type { ptr, i32, i32 }
%"class.Minisat::LSet" = type { %"class.Minisat::IntSet" }
%"class.Minisat::IntSet" = type { %"class.Minisat::IntMap", %"class.Minisat::vec.30" }
%"class.Minisat::IntMap" = type <{ %"class.Minisat::vec.29", [8 x i8] }>
%"class.Minisat::vec.29" = type { ptr, i32, i32 }
%"class.Minisat::VMap" = type { %"class.Minisat::IntMap.base.35", [7 x i8] }
%"class.Minisat::IntMap.base.35" = type <{ %"class.Minisat::vec.34", i8 }>
%"class.Minisat::vec.34" = type { ptr, i32, i32 }
%"class.Minisat::VMap.36" = type { %"class.Minisat::IntMap.base.38", [7 x i8] }
%"class.Minisat::IntMap.base.38" = type <{ %"class.Minisat::vec", i8 }>
%"class.Minisat::VMap.44" = type { %"class.Minisat::IntMap.base.47", [7 x i8] }
%"class.Minisat::IntMap.base.47" = type <{ %"class.Minisat::vec.46", i8 }>
%"class.Minisat::vec.46" = type { ptr, i32, i32 }
%"class.Minisat::OccLists" = type { %"class.Minisat::IntMap.49", %"class.Minisat::IntMap", %"class.Minisat::vec.30", %"struct.Minisat::Solver::WatcherDeleted" }
%"class.Minisat::IntMap.49" = type <{ %"class.Minisat::vec.50", [8 x i8] }>
%"class.Minisat::vec.50" = type { ptr, i32, i32 }
%"struct.Minisat::Solver::WatcherDeleted" = type { ptr }
%"class.Minisat::Heap" = type { %"class.Minisat::vec.32", %"class.Minisat::IntMap.52", %"struct.Minisat::Solver::VarOrderLt" }
%"class.Minisat::IntMap.52" = type <{ %"class.Minisat::vec.32", [8 x i8] }>
%"struct.Minisat::Solver::VarOrderLt" = type { ptr }
%"class.Minisat::ClauseAllocator" = type { %"class.Minisat::RegionAllocator", i8, [7 x i8] }
%"class.Minisat::RegionAllocator" = type <{ ptr, i32, i32, i32, [4 x i8] }>
%"class.Minisat::vec.54" = type { ptr, i32, i32 }
%"class.Minisat::vec.30" = type { ptr, i32, i32 }
%"class.Minisat::vec.31" = type { ptr, i32, i32 }
%"class.Minisat::OccLists.55" = type { %"class.Minisat::IntMap.56", %"class.Minisat::IntMap.41", %"class.Minisat::vec.32", %"struct.Minisat::SimpSolver::ClauseDeleted" }
%"class.Minisat::IntMap.56" = type <{ %"class.Minisat::vec.57", [8 x i8] }>
%"class.Minisat::vec.57" = type { ptr, i32, i32 }
%"class.Minisat::IntMap.41" = type <{ %"class.Minisat::vec.29", [8 x i8] }>
%"struct.Minisat::SimpSolver::ClauseDeleted" = type { ptr }
%"class.Minisat::LMap" = type { %"class.Minisat::IntMap.base.60", [7 x i8] }
%"class.Minisat::IntMap.base.60" = type <{ %"class.Minisat::vec.32", i8 }>
%"class.Minisat::Heap.61" = type { %"class.Minisat::vec.32", %"class.Minisat::IntMap.52", %"struct.Minisat::SimpSolver::ElimLt" }
%"struct.Minisat::SimpSolver::ElimLt" = type { ptr }
%"class.Minisat::Queue" = type { %"class.Minisat::vec.31", i32, i32 }
%"class.Minisat::vec.32" = type { ptr, i32, i32 }
%"class.Minisat::VMap.40" = type { %"class.Minisat::IntMap.base.42", [7 x i8] }
%"class.Minisat::IntMap.base.42" = type <{ %"class.Minisat::vec.29", i8 }>

@.str.5 = private unnamed_addr constant [74 x i8] c"vector::_M_range_check: __n (which is %zu) >= this->size() (which is %zu)\00", align 1

; Function Attrs: mustprogress nounwind uwtable
define linkonce_odr noundef nonnull align 1 dereferenceable(1) ptr @_ZNK7Minisat3vecIciEixEi(ptr noundef nonnull align 8 dereferenceable(16) %0, i32 noundef %1) #1 comdat align 2 {
  %3 = alloca ptr, align 8
  %4 = alloca i32, align 4
  store ptr %0, ptr %3, align 8, !tbaa !225
  store i32 %1, ptr %4, align 4, !tbaa !65
  %5 = load ptr, ptr %3, align 8
  %6 = getelementptr inbounds nuw %"class.Minisat::vec.29", ptr %5, i32 0, i32 0
  %7 = load ptr, ptr %6, align 8, !tbaa !227
  %8 = load i32, ptr %4, align 4, !tbaa !65
  %9 = sext i32 %8 to i64
  %10 = getelementptr inbounds i8, ptr %7, i64 %9
  ret ptr %10
}

; Function Attrs: mustprogress nounwind uwtable
define linkonce_odr noundef i32 @_ZNK7Minisat14MkIndexDefaultIiEclEi(ptr noundef nonnull align 1 dereferenceable(1) %0, i32 noundef %1) #1 comdat align 2 {
  %3 = alloca ptr, align 8
  %4 = alloca i32, align 4
  store ptr %0, ptr %3, align 8, !tbaa !228
  store i32 %1, ptr %4, align 4, !tbaa !65
  %5 = load i32, ptr %4, align 4, !tbaa !65
  ret i32 %5
}

; Function Attrs: mustprogress uwtable
define linkonce_odr noundef nonnull align 1 dereferenceable(1) ptr @_ZNK7Minisat6IntMapIicNS_14MkIndexDefaultIiEEEixEi(ptr noundef nonnull align 8 dereferenceable(17) %0, i32 noundef %1) #3 comdat align 2 {
  %3 = alloca ptr, align 8
  %4 = alloca i32, align 4
  store ptr %0, ptr %3, align 8, !tbaa !223
  store i32 %1, ptr %4, align 4, !tbaa !65
  %5 = load ptr, ptr %3, align 8
  %6 = getelementptr inbounds nuw %"class.Minisat::IntMap.41", ptr %5, i32 0, i32 0
  %7 = getelementptr inbounds i8, ptr %5, i64 16
  %8 = load i32, ptr %4, align 4, !tbaa !65
  %9 = call noundef i32 @_ZNK7Minisat14MkIndexDefaultIiEclEi(ptr noundef nonnull align 1 dereferenceable(1) %7, i32 noundef %8)
  %10 = call noundef nonnull align 1 dereferenceable(1) ptr @_ZNK7Minisat3vecIciEixEi(ptr noundef nonnull align 8 dereferenceable(16) %6, i32 noundef %9)
  ret ptr %10
}

; Function Attrs: mustprogress nounwind uwtable
define linkonce_odr noundef nonnull align 4 dereferenceable(4) ptr @_ZNSt6vectorIiSaIiEEixEm(ptr noundef nonnull align 8 dereferenceable(24) %0, i64 noundef %1) #1 comdat align 2 {
  %3 = alloca ptr, align 8
  %4 = alloca i64, align 8
  store ptr %0, ptr %3, align 8, !tbaa !66
  store i64 %1, ptr %4, align 8, !tbaa !78
  %5 = load ptr, ptr %3, align 8
  %6 = getelementptr inbounds nuw %"struct.std::_Vector_base.15", ptr %5, i32 0, i32 0
  %7 = getelementptr inbounds nuw %"struct.std::_Vector_base<int, std::allocator<int>>::_Vector_impl_data", ptr %6, i32 0, i32 0
  %8 = load ptr, ptr %7, align 8, !tbaa !69
  %9 = load i64, ptr %4, align 8, !tbaa !78
  %10 = getelementptr inbounds nuw i32, ptr %8, i64 %9
  ret ptr %10
}

; Function Attrs: mustprogress uwtable
define linkonce_odr void @_ZNKSt6vectorIiSaIiEE14_M_range_checkEm(ptr noundef nonnull align 8 dereferenceable(24) %0, i64 noundef %1) #3 comdat align 2 {
  %3 = alloca ptr, align 8
  %4 = alloca i64, align 8
  store ptr %0, ptr %3, align 8, !tbaa !66
  store i64 %1, ptr %4, align 8, !tbaa !78
  %5 = load ptr, ptr %3, align 8
  %6 = load i64, ptr %4, align 8, !tbaa !78
  %7 = call noundef i64 @_ZNKSt6vectorIiSaIiEE4sizeEv(ptr noundef nonnull align 8 dereferenceable(24) %5) #18
  %8 = icmp uge i64 %6, %7
  br i1 %8, label %9, label %12

9:                                                ; preds = %2
  %10 = load i64, ptr %4, align 8, !tbaa !78
  %11 = call noundef i64 @_ZNKSt6vectorIiSaIiEE4sizeEv(ptr noundef nonnull align 8 dereferenceable(24) %5) #18
  call void (ptr, ...) @_ZSt24__throw_out_of_range_fmtPKcz(ptr noundef @.str.5, i64 noundef %10, i64 noundef %11) #24
  unreachable

12:                                               ; preds = %2
  ret void
}

; Function Attrs: inlinehint mustprogress uwtable
define linkonce_odr noundef zeroext i1 @_ZNK7Minisat10SimpSolver12isEliminatedEi(ptr noundef nonnull align 8 dereferenceable(1196) %0, i32 noundef %1) #7 comdat align 2 {
  %3 = alloca ptr, align 8
  %4 = alloca i32, align 4
  store ptr %0, ptr %3, align 8, !tbaa !77
  store i32 %1, ptr %4, align 4, !tbaa !65
  %5 = load ptr, ptr %3, align 8
  %6 = getelementptr inbounds nuw %"class.Minisat::SimpSolver", ptr %5, i32 0, i32 26
  %7 = load i32, ptr %4, align 4, !tbaa !65
  %8 = call noundef nonnull align 1 dereferenceable(1) ptr @_ZNK7Minisat6IntMapIicNS_14MkIndexDefaultIiEEEixEi(ptr noundef nonnull align 8 dereferenceable(17) %6, i32 noundef %7)
  %9 = load i8, ptr %8, align 1, !tbaa !11
  %10 = icmp ne i8 %9, 0
  ret i1 %10
}

; Function Attrs: mustprogress uwtable
define linkonce_odr noundef nonnull align 4 dereferenceable(4) ptr @_ZNSt6vectorIiSaIiEE2atEm(ptr noundef nonnull align 8 dereferenceable(24) %0, i64 noundef %1) #3 comdat align 2 {
  %3 = alloca ptr, align 8
  %4 = alloca i64, align 8
  store ptr %0, ptr %3, align 8, !tbaa !66
  store i64 %1, ptr %4, align 8, !tbaa !78
  %5 = load ptr, ptr %3, align 8
  %6 = load i64, ptr %4, align 8, !tbaa !78
  call void @_ZNKSt6vectorIiSaIiEE14_M_range_checkEm(ptr noundef nonnull align 8 dereferenceable(24) %5, i64 noundef %6)
  %7 = load i64, ptr %4, align 8, !tbaa !78
  %8 = call noundef nonnull align 4 dereferenceable(4) ptr @_ZNSt6vectorIiSaIiEEixEm(ptr noundef nonnull align 8 dereferenceable(24) %5, i64 noundef %7) #18
  ret ptr %8
}

; Function Attrs: mustprogress nounwind uwtable
define linkonce_odr noundef i64 @_ZNKSt6vectorIiSaIiEE4sizeEv(ptr noundef nonnull align 8 dereferenceable(24) %0) #1 comdat align 2 {
  %2 = alloca ptr, align 8
  store ptr %0, ptr %2, align 8, !tbaa !66
  %3 = load ptr, ptr %2, align 8
  %4 = getelementptr inbounds nuw %"struct.std::_Vector_base.15", ptr %3, i32 0, i32 0
  %5 = getelementptr inbounds nuw %"struct.std::_Vector_base<int, std::allocator<int>>::_Vector_impl_data", ptr %4, i32 0, i32 1
  %6 = load ptr, ptr %5, align 8, !tbaa !70
  %7 = getelementptr inbounds nuw %"struct.std::_Vector_base.15", ptr %3, i32 0, i32 0
  %8 = getelementptr inbounds nuw %"struct.std::_Vector_base<int, std::allocator<int>>::_Vector_impl_data", ptr %7, i32 0, i32 0
  %9 = load ptr, ptr %8, align 8, !tbaa !69
  %10 = ptrtoint ptr %6 to i64
  %11 = ptrtoint ptr %9 to i64
  %12 = sub i64 %10, %11
  %13 = sdiv exact i64 %12, 4
  ret i64 %13
}

; Function Attrs: mustprogress uwtable
define noundef zeroext i1 @_ZN9ezMiniSAT10eliminatedEi(ptr noundef nonnull align 8 dereferenceable(376) %0, i32 noundef %1) unnamed_addr #3 align 2 {
  %3 = alloca i1, align 1
  %4 = alloca ptr, align 8
  %5 = alloca i32, align 4
  store ptr %0, ptr %4, align 8, !tbaa !14
  store i32 %1, ptr %5, align 4, !tbaa !65
  %6 = load ptr, ptr %4, align 8
  %7 = load i32, ptr %5, align 4, !tbaa !65
  %8 = icmp slt i32 %7, 0
  br i1 %8, label %9, label %12

9:                                                ; preds = %2
  %10 = load i32, ptr %5, align 4, !tbaa !65
  %11 = sub nsw i32 0, %10
  br label %14

12:                                               ; preds = %2
  %13 = load i32, ptr %5, align 4, !tbaa !65
  br label %14

14:                                               ; preds = %12, %9
  %15 = phi i32 [ %11, %9 ], [ %13, %12 ]
  store i32 %15, ptr %5, align 4, !tbaa !65
  %16 = getelementptr inbounds nuw %class.ezMiniSAT, ptr %6, i32 0, i32 1
  %17 = load ptr, ptr %16, align 8, !tbaa !18
  %18 = icmp ne ptr %17, null
  br i1 %18, label %19, label %38

19:                                               ; preds = %14
  %20 = load i32, ptr %5, align 4, !tbaa !65
  %21 = icmp sgt i32 %20, 0
  br i1 %21, label %22, label %38

22:                                               ; preds = %19
  %23 = load i32, ptr %5, align 4, !tbaa !65
  %24 = getelementptr inbounds nuw %class.ezMiniSAT, ptr %6, i32 0, i32 2
  %25 = call noundef i64 @_ZNKSt6vectorIiSaIiEE4sizeEv(ptr noundef nonnull align 8 dereferenceable(24) %24) #18
  %26 = trunc i64 %25 to i32
  %27 = icmp sle i32 %23, %26
  br i1 %27, label %28, label %38

28:                                               ; preds = %22
  %29 = getelementptr inbounds nuw %class.ezMiniSAT, ptr %6, i32 0, i32 1
  %30 = load ptr, ptr %29, align 8, !tbaa !18
  %31 = getelementptr inbounds nuw %class.ezMiniSAT, ptr %6, i32 0, i32 2
  %32 = load i32, ptr %5, align 4, !tbaa !65
  %33 = sub nsw i32 %32, 1
  %34 = sext i32 %33 to i64
  %35 = call noundef nonnull align 4 dereferenceable(4) ptr @_ZNSt6vectorIiSaIiEE2atEm(ptr noundef nonnull align 8 dereferenceable(24) %31, i64 noundef %34)
  %36 = load i32, ptr %35, align 4, !tbaa !65
  %37 = call noundef zeroext i1 @_ZNK7Minisat10SimpSolver12isEliminatedEi(ptr noundef nonnull align 8 dereferenceable(1196) %30, i32 noundef %36)
  store i1 %37, ptr %3, align 1
  br label %39

38:                                               ; preds = %22, %19, %14
  store i1 false, ptr %3, align 1
  br label %39

39:                                               ; preds = %38, %28
  %40 = load i1, ptr %3, align 1
  ret i1 %40
}