; Function Attrs: mustprogress uwtable
define noundef zeroext i1 @_ZN9ezMiniSAT10eliminatedEi(ptr noundef nonnull readonly align 8 captures(none) dereferenceable(376) %0, i32 noundef %1) unnamed_addr #0 align 2 {
  %3 = tail call i32 @llvm.abs.i32(i32 %1, i1 true)
  %4 = getelementptr inbounds nuw i8, ptr %0, i64 288
  %5 = load ptr, ptr %4, align 8, !tbaa !21
  %6 = icmp ne ptr %5, null
  %7 = icmp ne i32 %1, 0
  %or.cond = and i1 %7, %6
  br i1 %or.cond, label %8, label %30

8:                                                ; preds = %2
  %9 = getelementptr inbounds nuw i8, ptr %0, i64 296
  %10 = getelementptr inbounds nuw i8, ptr %0, i64 304
  %11 = load ptr, ptr %10, align 8, !tbaa !66
  %12 = load ptr, ptr %9, align 8, !tbaa !64
  %13 = ptrtoint ptr %11 to i64
  %14 = ptrtoint ptr %12 to i64
  %15 = sub i64 %13, %14
  %16 = ashr exact i64 %15, 2
  %17 = trunc i64 %16 to i32
  %.not = icmp sgt i32 %3, %17
  br i1 %.not, label %30, label %18

18:                                               ; preds = %8
  %19 = add nsw i32 %3, -1
  %20 = zext nneg i32 %19 to i64
  %.not.i.i = icmp ugt i64 %16, %20
  br i1 %.not.i.i, label %_ZNSt6vectorIiSaIiEE2atEm.exit, label %21

21:                                               ; preds = %18
  tail call void (ptr, ...) @_ZSt24__throw_out_of_range_fmtPKcz(ptr noundef nonnull @.str.5, i64 noundef %20, i64 noundef %16) #26
  unreachable

_ZNSt6vectorIiSaIiEE2atEm.exit:                   ; preds = %18
  %22 = getelementptr inbounds nuw i32, ptr %12, i64 %20
  %23 = load i32, ptr %22, align 4, !tbaa !63
  %24 = getelementptr inbounds nuw i8, ptr %5, i64 1160
  %25 = load ptr, ptr %24, align 8, !tbaa !73
  %26 = sext i32 %23 to i64
  %27 = getelementptr inbounds i8, ptr %25, i64 %26
  %28 = load i8, ptr %27, align 1, !tbaa !76
  %29 = icmp ne i8 %28, 0
  br label %30

30:                                               ; preds = %2, %8, %_ZNSt6vectorIiSaIiEE2atEm.exit
  %.0 = phi i1 [ %29, %_ZNSt6vectorIiSaIiEE2atEm.exit ], [ false, %8 ], [ false, %2 ]
  ret i1 %.0
}